; Function Attrs: nofree norecurse nosync nounwind memory(argmem: readwrite) uwtable
define internal void @rgb12leToY_c(ptr noundef writeonly captures(none) %0, ptr noundef readonly captures(none) %1, ptr readnone captures(none) %2, ptr readnone captures(none) %3, i32 noundef %4, ptr noundef readonly captures(none) %5, ptr readnone captures(none) %6) #1 {
  %8 = load i32, ptr %5, align 4, !tbaa !42
  %9 = getelementptr inbounds nuw i8, ptr %5, i64 4
  %10 = load i32, ptr %9, align 4, !tbaa !42
  %11 = shl i32 %10, 4
  %12 = getelementptr inbounds nuw i8, ptr %5, i64 8
  %13 = load i32, ptr %12, align 4, !tbaa !42
  %14 = shl i32 %13, 8
  %15 = icmp sgt i32 %4, 0
  br i1 %15, label %.lr.ph.preheader, label %rgb16_32ToY_c_template.exit

.lr.ph.preheader:                                 ; preds = %7
  %wide.trip.count = zext nneg i32 %4 to i64
  br label %.lr.ph

.lr.ph:                                           ; preds = %.lr.ph.preheader, %.lr.ph
  %indvars.iv = phi i64 [ 0, %.lr.ph.preheader ], [ %indvars.iv.next, %.lr.ph ]
  %16 = shl nuw nsw i64 %indvars.iv, 1
  %17 = getelementptr inbounds nuw i8, ptr %1, i64 %16
  %18 = load i16, ptr %17, align 1, !tbaa !34
  %19 = zext i16 %18 to i32
  %20 = and i32 %19, 15
  %21 = and i32 %19, 240
  %22 = and i32 %19, 3840
  %23 = mul nsw i32 %22, %8
  %24 = mul nsw i32 %11, %21
  %25 = mul nsw i32 %14, %20
  %26 = add i32 %24, 8392704
  %27 = add i32 %26, %23
  %28 = add i32 %27, %25
  %29 = lshr i32 %28, 13
  %30 = trunc i32 %29 to i16
  %31 = getelementptr inbounds nuw i16, ptr %0, i64 %indvars.iv
  store i16 %30, ptr %31, align 2, !tbaa !43
  %indvars.iv.next = add nuw nsw i64 %indvars.iv, 1
  %exitcond.not = icmp eq i64 %indvars.iv.next, %wide.trip.count
  br i1 %exitcond.not, label %rgb16_32ToY_c_template.exit, label %.lr.ph, !llvm.loop !116

rgb16_32ToY_c_template.exit:                      ; preds = %.lr.ph, %7
  ret void
}